; Function Attrs: mustprogress nounwind uwtable
define internal void @_ZNK12_GLOBAL__N_119ARCWeakByrefHelpers11profileImplERN4llvm16FoldingSetNodeIDE(ptr nocapture nonnull readnone align 8 %0, ptr noundef nonnull align 8 dereferenceable(144) %1) unnamed_addr #0 align 2 {
  %3 = tail call noundef i64 @_ZNK4llvm15SmallVectorBaseIjE4sizeEv(ptr noundef nonnull align 8 dereferenceable(16) %1) #24
  %4 = add i64 %3, 1
  %5 = tail call noundef i64 @_ZNK4llvm15SmallVectorBaseIjE8capacityEv(ptr noundef nonnull align 8 dereferenceable(16) %1) #24
  %.not.i.i.i.i = icmp ugt i64 %4, %5
  br i1 %.not.i.i.i.i, label %6, label %_ZN4llvm16FoldingSetNodeID10AddIntegerEi.exit

6:                                                ; preds = %2
  %7 = getelementptr inbounds i8, ptr %1, i64 16
  tail call void @_ZN4llvm15SmallVectorBaseIjE8grow_podEPvmm(ptr noundef nonnull align 8 dereferenceable(16) %1, ptr noundef nonnull %7, i64 noundef %4, i64 noundef 4) #24
  br label %_ZN4llvm16FoldingSetNodeID10AddIntegerEi.exit

_ZN4llvm16FoldingSetNodeID10AddIntegerEi.exit:    ; preds = %2, %6
  %8 = load ptr, ptr %1, align 8
  %9 = tail call noundef i64 @_ZNK4llvm15SmallVectorBaseIjE4sizeEv(ptr noundef nonnull align 8 dereferenceable(16) %1) #24
  %10 = getelementptr inbounds i32, ptr %8, i64 %9
  store i32 0, ptr %10, align 1
  %11 = tail call noundef i64 @_ZNK4llvm15SmallVectorBaseIjE4sizeEv(ptr noundef nonnull align 8 dereferenceable(16) %1) #24
  %12 = add i64 %11, 1
  tail call void @_ZN4llvm15SmallVectorBaseIjE8set_sizeEm(ptr noundef nonnull align 8 dereferenceable(16) %1, i64 noundef %12) #24
  ret void
}